; Function Attrs: nounwind uwtable
define dso_local ptr @TypeNameListToString(ptr noundef readonly captures(address_is_null) %0) local_unnamed_addr #0 {
  %2 = alloca %struct.StringInfoData, align 8
  call void @llvm.lifetime.start.p0(i64 24, ptr nonnull %2) #7
  call void @initStringInfo(ptr noundef nonnull %2) #7
  %3 = getelementptr inbounds nuw i8, ptr %0, i64 4
  %.not = icmp eq ptr %0, null
  br i1 %.not, label %._crit_edge, label %.lr.ph

.lr.ph:                                           ; preds = %1
  %4 = getelementptr inbounds nuw i8, ptr %0, i64 16
  %5 = load i32, ptr %3, align 4
  %6 = icmp sgt i32 %5, 0
  br i1 %6, label %list_head.exit, label %._crit_edge

._crit_edge:                                      ; preds = %12, %.lr.ph, %1
  %7 = load ptr, ptr %2, align 8
  call void @llvm.lifetime.end.p0(i64 24, ptr nonnull %2) #7
  ret ptr %7

list_head.exit:                                   ; preds = %.lr.ph, %12
  %indvars.iv = phi i64 [ %indvars.iv.next, %12 ], [ 0, %.lr.ph ]
  %8 = load ptr, ptr %4, align 8
  %9 = getelementptr inbounds nuw %union.ListCell, ptr %8, i64 %indvars.iv
  %10 = load ptr, ptr %9, align 8
  %.not11 = icmp eq i64 %indvars.iv, 0
  br i1 %.not11, label %12, label %11

11:                                               ; preds = %list_head.exit
  call void @appendStringInfoChar(ptr noundef nonnull %2, i8 noundef signext 44) #7
  br label %12

12:                                               ; preds = %11, %list_head.exit
  call fastcc void @appendTypeNameToBuffer(ptr noundef %10, ptr noundef %2)
  %indvars.iv.next = add nuw nsw i64 %indvars.iv, 1
  %13 = load i32, ptr %3, align 4
  %14 = sext i32 %13 to i64
  %15 = icmp slt i64 %indvars.iv.next, %14
  br i1 %15, label %list_head.exit, label %._crit_edge
}